(iprim_maze
Position
p0
(dp1
S'Y'
p2
I0
sS'X'
p3
I1
sb.(iprim_maze
Position
p0
(dp1
S'Y'
p2
I14
sS'X'
p3
I15
sb.(iprim_maze
Position
p0
(dp1
S'Y'
p2
I1
sS'X'
p3
I0
sb.(iprim_maze
Position
p0
(dp1
S'Y'
p2
I15
sS'X'
p3
I14
sb.(iprim_maze
Position
p0
(dp1
S'Y'
p2
I0
sS'X'
p3
I2
sb.(iprim_maze
Position
p0
(dp1
S'Y'
p2
I13
sS'X'
p3
I15
sb.(iprim_maze
Position
p0
(dp1
S'Y'
p2
I1
sS'X'
p3
I2
sb.(iprim_maze
Position
p0
(dp1
S'Y'
p2
I15
sS'X'
p3
I13
sb.(iprim_maze
Position
p0
(dp1
S'Y'
p2
I0
sS'X'
p3
I3
sb.(iprim_maze
Position
p0
(dp1
S'Y'
p2
I12
sS'X'
p3
I15
sb.(iprim_maze
Position
p0
(dp1
S'Y'
p2
I2
sS'X'
p3
I2
sb.(iprim_maze
Position
p0
(dp1
S'Y'
p2
I13
sS'X'
p3
I14
sb.(iprim_maze
Position
p0
(dp1
S'Y'
p2
I2
sS'X'
p3
I1
sb.(iprim_maze
Position
p0
(dp1
S'Y'
p2
I15
sS'X'
p3
I12
sb.(iprim_maze
Position
p0
(dp1
S'Y'
p2
I2
sS'X'
p3
I3
sb.(iprim_maze
Position
p0
(dp1
S'Y'
p2
I14
sS'X'
p3
I13
sb.(iprim_maze
Position
p0
(dp1
S'Y'
p2
I3
sS'X'
p3
I2
sb.(iprim_maze
Position
p0
(dp1
S'Y'
p2
I11
sS'X'
p3
I15
sb.(iprim_maze
Position
p0
(dp1
S'Y'
p2
I4
sS'X'
p3
I2
sb.(iprim_maze
Position
p0
(dp1
S'Y'
p2
I10
sS'X'
p3
I15
sb.(iprim_maze
Position
p0
(dp1
S'Y'
p2
I0
sS'X'
p3
I4
sb.(iprim_maze
Position
p0
(dp1
S'Y'
p2
I9
sS'X'
p3
I15
sb.(iprim_maze
Position
p0
(dp1
S'Y'
p2
I1
sS'X'
p3
I4
sb.(iprim_maze
Position
p0
(dp1
S'Y'
p2
I9
sS'X'
p3
I14
sb.(iprim_maze
Position
p0
(dp1
S'Y'
p2
I1
sS'X'
p3
I5
sb.(iprim_maze
Position
p0
(dp1
S'Y'
p2
I8
sS'X'
p3
I15
sb.(iprim_maze
Position
p0
(dp1
S'Y'
p2
I4
sS'X'
p3
I3
sb.(iprim_maze
Position
p0
(dp1
S'Y'
p2
I9
sS'X'
p3
I13
sb.(iprim_maze
Position
p0
(dp1
S'Y'
p2
I4
sS'X'
p3
I1
sb.(iprim_maze
Position
p0
(dp1
S'Y'
p2
I11
sS'X'
p3
I14
sb.(iprim_maze
Position
p0
(dp1
S'Y'
p2
I5
sS'X'
p3
I2
sb.(iprim_maze
Position
p0
(dp1
S'Y'
p2
I11
sS'X'
p3
I13
sb.(iprim_maze
Position
p0
(dp1
S'Y'
p2
I2
sS'X'
p3
I5
sb.(iprim_maze
Position
p0
(dp1
S'Y'
p2
I12
sS'X'
p3
I13
sb.(iprim_maze
Position
p0
(dp1
S'Y'
p2
I4
sS'X'
p3
I4
sb.(iprim_maze
Position
p0
(dp1
S'Y'
p2
I11
sS'X'
p3
I12
sb.(iprim_maze
Position
p0
(dp1
S'Y'
p2
I3
sS'X'
p3
I5
sb.(iprim_maze
Position
p0
(dp1
S'Y'
p2
I11
sS'X'
p3
I11
sb.(iprim_maze
Position
p0
(dp1
S'Y'
p2
I3
sS'X'
p3
I6
sb.(iprim_maze
Position
p0
(dp1
S'Y'
p2
I11
sS'X'
p3
I10
sb.(iprim_maze
Position
p0
(dp1
S'Y'
p2
I6
sS'X'
p3
I2
sb.(iprim_maze
Position
p0
(dp1
S'Y'
p2
I10
sS'X'
p3
I11
sb.(iprim_maze
Position
p0
(dp1
S'Y'
p2
I4
sS'X'
p3
I0
sb.(iprim_maze
Position
p0
(dp1
S'Y'
p2
I12
sS'X'
p3
I10
sb.(iprim_maze
Position
p0
(dp1
S'Y'
p2
I3
sS'X'
p3
I0
sb.(iprim_maze
Position
p0
(dp1
S'Y'
p2
I9
sS'X'
p3
I12
sb.(iprim_maze
Position
p0
(dp1
S'Y'
p2
I7
sS'X'
p3
I2
sb.(iprim_maze
Position
p0
(dp1
S'Y'
p2
I12
sS'X'
p3
I9
sb.(iprim_maze
Position
p0
(dp1
S'Y'
p2
I7
sS'X'
p3
I1
sb.(iprim_maze
Position
p0
(dp1
S'Y'
p2
I8
sS'X'
p3
I13
sb.(iprim_maze
Position
p0
(dp1
S'Y'
p2
I7
sS'X'
p3
I3
sb.(iprim_maze
Position
p0
(dp1
S'Y'
p2
I15
sS'X'
p3
I11
sb.(iprim_maze
Position
p0
(dp1
S'Y'
p2
I5
sS'X'
p3
I0
sb.(iprim_maze
Position
p0
(dp1
S'Y'
p2
I7
sS'X'
p3
I15
sb.(iprim_maze
Position
p0
(dp1
S'Y'
p2
I8
sS'X'
p3
I3
sb.(iprim_maze
Position
p0
(dp1
S'Y'
p2
I6
sS'X'
p3
I15
sb.(iprim_maze
Position
p0
(dp1
S'Y'
p2
I9
sS'X'
p3
I3
sb.(iprim_maze
Position
p0
(dp1
S'Y'
p2
I6
sS'X'
p3
I14
sb.(iprim_maze
Position
p0
(dp1
S'Y'
p2
I7
sS'X'
p3
I0
sb.(iprim_maze
Position
p0
(dp1
S'Y'
p2
I13
sS'X'
p3
I10
sb.(iprim_maze
Position
p0
(dp1
S'Y'
p2
I9
sS'X'
p3
I2
sb.(iprim_maze
Position
p0
(dp1
S'Y'
p2
I15
sS'X'
p3
I10
sb.(iprim_maze
Position
p0
(dp1
S'Y'
p2
I7
sS'X'
p3
I4
sb.(iprim_maze
Position
p0
(dp1
S'Y'
p2
I12
sS'X'
p3
I8
sb.(iprim_maze
Position
p0
(dp1
S'Y'
p2
I9
sS'X'
p3
I1
sb.(iprim_maze
Position
p0
(dp1
S'Y'
p2
I11
sS'X'
p3
I8
sb.(iprim_maze
Position
p0
(dp1
S'Y'
p2
I10
sS'X'
p3
I2
sb.(iprim_maze
Position
p0
(dp1
S'Y'
p2
I11
sS'X'
p3
I7
sb.(iprim_maze
Position
p0
(dp1
S'Y'
p2
I8
sS'X'
p3
I0
sb.(iprim_maze
Position
p0
(dp1
S'Y'
p2
I6
sS'X'
p3
I13
sb.(iprim_maze
Position
p0
(dp1
S'Y'
p2
I1
sS'X'
p3
I6
sb.(iprim_maze
Position
p0
(dp1
S'Y'
p2
I13
sS'X'
p3
I8
sb.(iprim_maze
Position
p0
(dp1
S'Y'
p2
I9
sS'X'
p3
I4
sb.(iprim_maze
Position
p0
(dp1
S'Y'
p2
I5
sS'X'
p3
I13
sb.(iprim_maze
Position
p0
(dp1
S'Y'
p2
I1
sS'X'
p3
I7
sb.(iprim_maze
Position
p0
(dp1
S'Y'
p2
I4
sS'X'
p3
I13
sb.(iprim_maze
Position
p0
(dp1
S'Y'
p2
I3
sS'X'
p3
I7
sb.(iprim_maze
Position
p0
(dp1
S'Y'
p2
I5
sS'X'
p3
I12
sb.(iprim_maze
Position
p0
(dp1
S'Y'
p2
I9
sS'X'
p3
I5
sb.(iprim_maze
Position
p0
(dp1
S'Y'
p2
I10
sS'X'
p3
I7
sb.(iprim_maze
Position
p0
(dp1
S'Y'
p2
I4
sS'X'
p3
I6
sb.(iprim_maze
Position
p0
(dp1
S'Y'
p2
I10
sS'X'
p3
I6
sb.(iprim_maze
Position
p0
(dp1
S'Y'
p2
I5
sS'X'
p3
I4
sb.(iprim_maze
Position
p0
(dp1
S'Y'
p2
I15
sS'X'
p3
I9
sb.(iprim_maze
Position
p0
(dp1
S'Y'
p2
I5
sS'X'
p3
I5
sb.(iprim_maze
Position
p0
(dp1
S'Y'
p2
I15
sS'X'
p3
I8
sb.(iprim_maze
Position
p0
(dp1
S'Y'
p2
I11
sS'X'
p3
I2
sb.(iprim_maze
Position
p0
(dp1
S'Y'
p2
I13
sS'X'
p3
I11
sb.(iprim_maze
Position
p0
(dp1
S'Y'
p2
I8
sS'X'
p3
I5
sb.(iprim_maze
Position
p0
(dp1
S'Y'
p2
I14
sS'X'
p3
I9
sb.(iprim_maze
Position
p0
(dp1
S'Y'
p2
I0
sS'X'
p3
I6
sb.(iprim_maze
Position
p0
(dp1
S'Y'
p2
I15
sS'X'
p3
I7
sb.(iprim_maze
Position
p0
(dp1
S'Y'
p2
I10
sS'X'
p3
I4
sb.(iprim_maze
Position
p0
(dp1
S'Y'
p2
I5
sS'X'
p3
I15
sb.(iprim_maze
Position
p0
(dp1
S'Y'
p2
I12
sS'X'
p3
I2
sb.(iprim_maze
Position
p0
(dp1
S'Y'
p2
I15
sS'X'
p3
I6
sb.(iprim_maze
Position
p0
(dp1
S'Y'
p2
I3
sS'X'
p3
I8
sb.(iprim_maze
Position
p0
(dp1
S'Y'
p2
I9
sS'X'
p3
I7
sb.(iprim_maze
Position
p0
(dp1
S'Y'
p2
I2
sS'X'
p3
I8
sb.(iprim_maze
Position
p0
(dp1
S'Y'
p2
I13
sS'X'
p3
I7
sb.(iprim_maze
Position
p0
(dp1
S'Y'
p2
I11
sS'X'
p3
I4
sb.(iprim_maze
Position
p0
(dp1
S'Y'
p2
I4
sS'X'
p3
I15
sb.(iprim_maze
Position
p0
(dp1
S'Y'
p2
I13
sS'X'
p3
I2
sb.(iprim_maze
Position
p0
(dp1
S'Y'
p2
I13
sS'X'
p3
I6
sb.(iprim_maze
Position
p0
(dp1
S'Y'
p2
I11
sS'X'
p3
I1
sb.(iprim_maze
Position
p0
(dp1
S'Y'
p2
I8
sS'X'
p3
I7
sb.(iprim_maze
Position
p0
(dp1
S'Y'
p2
I8
sS'X'
p3
I6
sb.(iprim_maze
Position
p0
(dp1
S'Y'
p2
I13
sS'X'
p3
I5
sb.(iprim_maze
Position
p0
(dp1
S'Y'
p2
I12
sS'X'
p3
I3
sb.(iprim_maze
Position
p0
(dp1
S'Y'
p2
I9
sS'X'
p3
I8
sb.(iprim_maze
Position
p0
(dp1
S'Y'
p2
I4
sS'X'
p3
I8
sb.(iprim_maze
Position
p0
(dp1
S'Y'
p2
I14
sS'X'
p3
I5
sb.(iprim_maze
Position
p0
(dp1
S'Y'
p2
I3
sS'X'
p3
I9
sb.(iprim_maze
Position
p0
(dp1
S'Y'
p2
I12
sS'X'
p3
I5
sb.(iprim_maze
Position
p0
(dp1
S'Y'
p2
I14
sS'X'
p3
I2
sb.(iprim_maze
Position
p0
(dp1
S'Y'
p2
I9
sS'X'
p3
I9
sb.(iprim_maze
Position
p0
(dp1
S'Y'
p2
I11
sS'X'
p3
I0
sb.(iprim_maze
Position
p0
(dp1
S'Y'
p2
I10
sS'X'
p3
I9
sb.(iprim_maze
Position
p0
(dp1
S'Y'
p2
I13
sS'X'
p3
I1
sb.(iprim_maze
Position
p0
(dp1
S'Y'
p2
I3
sS'X'
p3
I15
sb.(iprim_maze
Position
p0
(dp1
S'Y'
p2
I3
sS'X'
p3
I10
sb.(iprim_maze
Position
p0
(dp1
S'Y'
p2
I2
sS'X'
p3
I15
sb.(iprim_maze
Position
p0
(dp1
S'Y'
p2
I2
sS'X'
p3
I10
sb.(iprim_maze
Position
p0
(dp1
S'Y'
p2
I9
sS'X'
p3
I10
sb.(iprim_maze
Position
p0
(dp1
S'Y'
p2
I15
sS'X'
p3
I2
sb.(iprim_maze
Position
p0
(dp1
S'Y'
p2
I2
sS'X'
p3
I14
sb.(iprim_maze
Position
p0
(dp1
S'Y'
p2
I5
sS'X'
p3
I8
sb.(iprim_maze
Position
p0
(dp1
S'Y'
p2
I5
sS'X'
p3
I11
sb.(iprim_maze
Position
p0
(dp1
S'Y'
p2
I2
sS'X'
p3
I11
sb.(iprim_maze
Position
p0
(dp1
S'Y'
p2
I8
sS'X'
p3
I9
sb.(iprim_maze
Position
p0
(dp1
S'Y'
p2
I7
sS'X'
p3
I6
sb.(iprim_maze
Position
p0
(dp1
S'Y'
p2
I1
sS'X'
p3
I15
sb.(iprim_maze
Position
p0
(dp1
S'Y'
p2
I1
sS'X'
p3
I11
sb.(iprim_maze
Position
p0
(dp1
S'Y'
p2
I13
sS'X'
p3
I12
sb.(iprim_maze
Position
p0
(dp1
S'Y'
p2
I1
sS'X'
p3
I12
sb.(iprim_maze
Position
p0
(dp1
S'Y'
p2
I14
sS'X'
p3
I4
sb.(iprim_maze
Position
p0
(dp1
S'Y'
p2
I5
sS'X'
p3
I9
sb.(iprim_maze
Position
p0
(dp1
S'Y'
p2
I3
sS'X'
p3
I13
sb.(iprim_maze
Position
p0
(dp1
S'Y'
p2
I6
sS'X'
p3
I6
sb.(iprim_maze
Position
p0
(dp1
S'Y'
p2
I15
sS'X'
p3
I4
sb.(iprim_maze
Position
p0
(dp1
S'Y'
p2
I0
sS'X'
p3
I11
sb.(iprim_maze
Position
p0
(dp1
S'Y'
p2
I0
sS'X'
p3
I15
sb.(iprim_maze
Position
p0
(dp1
S'Y'
p2
I6
sS'X'
p3
I7
sb.(iprim_maze
Position
p0
(dp1
S'Y'
p2
I4
sS'X'
p3
I11
sb.(iprim_maze
Position
p0
(dp1
S'Y'
p2
I0
sS'X'
p3
I10
sb.(iprim_maze
Position
p0
(dp1
S'Y'
p2
I0
sS'X'
p3
I14
sb.(iprim_maze
Position
p0
(dp1
S'Y'
p2
I12
sS'X'
p3
I0
sb.(iprim_maze
Position
p0
(dp1
S'Y'
p2
I6
sS'X'
p3
I11
sb.(iprim_maze
Position
p0
(dp1
S'Y'
p2
I10
sS'X'
p3
I0
sb.(iprim_maze
Position
p0
(dp1
S'Y'
p2
I3
sS'X'
p3
I12
sb.(iprim_maze
Position
p0
(dp1
S'Y'
p2
I0
sS'X'
p3
I9
sb.(iprim_maze
Position
p0
(dp1
S'Y'
p2
I0
sS'X'
p3
I13
sb.(iprim_maze
Position
p0
(dp1
S'Y'
p2
I1
sS'X'
p3
I9
sb.(iprim_maze
Position
p0
(dp1
S'Y'
p2
I6
sS'X'
p3
I10
sb.(iprim_maze
Position
p0
(dp1
S'Y'
p2
I0
sS'X'
p3
I8
sb.(iprim_maze
Position
p0
(dp1
S'Y'
p2
I7
sS'X'
p3
I9
sb.(iprim_maze
Position
p0
(dp1
S'Y'
p2
I15
sS'X'
p3
I1
sb.(iprim_maze
Position
p0
(dp1
S'Y'
p2
I7
sS'X'
p3
I8
sb.(iprim_maze
Position
p0
(dp1
S'Y'
p2
I15
sS'X'
p3
I0
sb.(iprim_maze
Position
p0
(dp1
S'Y'
p2
I7
sS'X'
p3
I11
sb.(iprim_maze
Position
p0
(dp1
S'Y'
p2
I14
sS'X'
p3
I0
sb.